target datalayout = "e-m:e-p270:32:32-p271:32:32-p272:64:64-i64:64-i128:128-f80:128-n8:16:32:64-S128"
target triple = "x86_64-pc-linux-gnu"

; Function Attrs: nounwind uwtable
define hidden void @cdef_copy_rect8_16bit_to_16bit_c(ptr noundef %0, i32 noundef %1, ptr noundef %2, i32 noundef %3, i32 noundef %4, i32 noundef %5) #0 {
  %7 = alloca ptr, align 8
  %8 = alloca i32, align 4
  %9 = alloca ptr, align 8
  %10 = alloca i32, align 4
  %11 = alloca i32, align 4
  %12 = alloca i32, align 4
  %13 = alloca i32, align 4
  %14 = alloca i32, align 4
  store ptr %0, ptr %7, align 8
  store i32 %1, ptr %8, align 4
  store ptr %2, ptr %9, align 8
  store i32 %3, ptr %10, align 4
  store i32 %4, ptr %11, align 4
  store i32 %5, ptr %12, align 4
  store i32 0, ptr %13, align 4
  br label %15

15:                                               ; preds = %46, %6
  %16 = load i32, ptr %13, align 4
  %17 = load i32, ptr %11, align 4
  %18 = icmp slt i32 %16, %17
  br i1 %18, label %19, label %49

19:                                               ; preds = %15
  store i32 0, ptr %14, align 4
  br label %20

20:                                               ; preds = %42, %19
  %21 = load i32, ptr %14, align 4
  %22 = load i32, ptr %12, align 4
  %23 = icmp slt i32 %21, %22
  br i1 %23, label %24, label %45

24:                                               ; preds = %20
  %25 = load ptr, ptr %9, align 8
  %26 = load i32, ptr %13, align 4
  %27 = load i32, ptr %10, align 4
  %28 = mul nsw i32 %26, %27
  %29 = load i32, ptr %14, align 4
  %30 = add nsw i32 %28, %29
  %31 = sext i32 %30 to i64
  %32 = getelementptr inbounds i16, ptr %25, i64 %31
  %33 = load i16, ptr %32, align 2
  %34 = load ptr, ptr %7, align 8
  %35 = load i32, ptr %13, align 4
  %36 = load i32, ptr %8, align 4
  %37 = mul nsw i32 %35, %36
  %38 = load i32, ptr %14, align 4
  %39 = add nsw i32 %37, %38
  %40 = sext i32 %39 to i64
  %41 = getelementptr inbounds i16, ptr %34, i64 %40
  store i16 %33, ptr %41, align 2
  br label %42

42:                                               ; preds = %24
  %43 = load i32, ptr %14, align 4
  %44 = add nsw i32 %43, 1
  store i32 %44, ptr %14, align 4
  br label %20, !llvm.loop !11

45:                                               ; preds = %20
  br label %46

46:                                               ; preds = %45
  %47 = load i32, ptr %13, align 4
  %48 = add nsw i32 %47, 1
  store i32 %48, ptr %13, align 4
  br label %15, !llvm.loop !12

49:                                               ; preds = %15
  ret void
}